; ModuleID = 'source-C-CXX/44/424.c'
source_filename = "source-C-CXX/44/424.c"
target datalayout = "e-m:e-p270:32:32-p271:32:32-p272:64:64-i64:64-f80:128-n8:16:32:64-S128"
target triple = "x86_64-pc-linux-gnu"

@.str = private unnamed_addr constant [6 x i8] c"%s %s\00", align 1
@.str.1 = private unnamed_addr constant [3 x i8] c"%d\00", align 1

; Function Attrs: nofree nounwind sspstrong uwtable
define dso_local void @main() local_unnamed_addr #0 {
  %1 = alloca [50 x i8], align 16
  %2 = alloca [50 x i8], align 16
  %3 = alloca [50 x i8], align 16
  %4 = getelementptr inbounds [50 x i8], [50 x i8]* %3, i64 0, i64 0
  %5 = getelementptr inbounds [50 x i8], [50 x i8]* %1, i64 0, i64 0
  call void @llvm.lifetime.start.p0i8(i64 50, i8* nonnull %5) #7
  %6 = getelementptr inbounds [50 x i8], [50 x i8]* %2, i64 0, i64 0
  call void @llvm.lifetime.start.p0i8(i64 50, i8* nonnull %6) #7
  %7 = getelementptr inbounds [50 x i8], [50 x i8]* %3, i64 0, i64 0
  call void @llvm.lifetime.start.p0i8(i64 50, i8* nonnull %7) #7
  call void @llvm.memset.p0i8.i64(i8* noundef nonnull align 16 dereferenceable(50) %7, i8 0, i64 50, i1 false)
  %8 = call i32 (i8*, ...) @__isoc99_scanf(i8* getelementptr inbounds ([6 x i8], [6 x i8]* @.str, i64 0, i64 0), i8* nonnull %5, i8* nonnull %6)
  %9 = call i64 @strlen(i8* noundef nonnull %5) #8
  %10 = call i64 @strlen(i8* noundef nonnull %6) #8
  %11 = trunc i64 %10 to i32
  %12 = icmp sgt i32 %11, 0
  br i1 %12, label %13, label %38

13:                                               ; preds = %0
  %14 = trunc i64 %9 to i32
  %15 = and i64 %10, 4294967295
  %16 = icmp sgt i32 %14, 0
  br label %17

17:                                               ; preds = %13, %35
  %18 = phi i64 [ 0, %13 ], [ %20, %35 ]
  %19 = phi i32 [ 0, %13 ], [ %36, %35 ]
  %20 = add nuw nsw i64 %18, 1
  br i1 %16, label %21, label %32

21:                                               ; preds = %17
  %22 = add i64 %9, %18
  %23 = trunc i64 %22 to i32
  %24 = trunc i64 %20 to i32
  %25 = call i32 @llvm.smax.i32(i32 %23, i32 %24)
  %26 = trunc i64 %18 to i32
  %27 = xor i32 %26, -1
  %28 = add i32 %25, %27
  %29 = zext i32 %28 to i64
  %30 = add nuw nsw i64 %29, 1
  %31 = getelementptr [50 x i8], [50 x i8]* %2, i64 0, i64 %18
  call void @llvm.memcpy.p0i8.p0i8.i64(i8* noundef nonnull align 16 %4, i8* noundef nonnull align 1 dereferenceable(1) %31, i64 %30, i1 false)
  br label %32

32:                                               ; preds = %21, %17
  %33 = call i32 @strcmp(i8* noundef nonnull %7, i8* noundef nonnull %5) #8
  %34 = icmp eq i32 %33, 0
  br i1 %34, label %38, label %35

35:                                               ; preds = %32
  %36 = add nuw nsw i32 %19, 1
  %37 = icmp eq i64 %20, %15
  br i1 %37, label %38, label %17, !llvm.loop !5

38:                                               ; preds = %35, %32, %0
  %39 = phi i32 [ 0, %0 ], [ %19, %32 ], [ %11, %35 ]
  %40 = call i32 (i8*, ...) @printf(i8* nonnull dereferenceable(1) getelementptr inbounds ([3 x i8], [3 x i8]* @.str.1, i64 0, i64 0), i32 %39)
  call void @llvm.lifetime.end.p0i8(i64 50, i8* nonnull %7) #7
  call void @llvm.lifetime.end.p0i8(i64 50, i8* nonnull %6) #7
  call void @llvm.lifetime.end.p0i8(i64 50, i8* nonnull %5) #7
  ret void
}

; Function Attrs: argmemonly mustprogress nofree nosync nounwind willreturn
declare void @llvm.lifetime.start.p0i8(i64 immarg, i8* nocapture) #1

; Function Attrs: argmemonly mustprogress nofree nounwind willreturn writeonly
declare void @llvm.memset.p0i8.i64(i8* nocapture writeonly, i8, i64, i1 immarg) #2

; Function Attrs: nofree nounwind
declare noundef i32 @__isoc99_scanf(i8* nocapture noundef readonly, ...) local_unnamed_addr #3

; Function Attrs: argmemonly mustprogress nofree nounwind readonly willreturn
declare i64 @strlen(i8* nocapture) local_unnamed_addr #4

; Function Attrs: argmemonly mustprogress nofree nounwind readonly willreturn
declare i32 @strcmp(i8* nocapture, i8* nocapture) local_unnamed_addr #4

; Function Attrs: nofree nounwind
declare noundef i32 @printf(i8* nocapture noundef readonly, ...) local_unnamed_addr #3

; Function Attrs: argmemonly mustprogress nofree nosync nounwind willreturn
declare void @llvm.lifetime.end.p0i8(i64 immarg, i8* nocapture) #1

; Function Attrs: nofree nosync nounwind readnone speculatable willreturn
declare i32 @llvm.smax.i32(i32, i32) #5

; Function Attrs: argmemonly nofree nounwind willreturn
declare void @llvm.memcpy.p0i8.p0i8.i64(i8* noalias nocapture writeonly, i8* noalias nocapture readonly, i64, i1 immarg) #6


!llvm.module.flags = !{!0, !1, !2, !3}
!llvm.ident = !{!4}

!0 = !{i32 1, !"wchar_size", i32 4}
!1 = !{i32 7, !"PIC Level", i32 2}
!2 = !{i32 7, !"PIE Level", i32 2}
!3 = !{i32 7, !"uwtable", i32 1}
!4 = !{!"clang version 13.0.0"}
!5 = distinct !{!5, !6}
!6 = !{!"llvm.loop.mustprogress"}
